target datalayout = "e-m:e-p270:32:32-p271:32:32-p272:64:64-i64:64-i128:128-f80:128-n8:16:32:64-S128"
target triple = "x86_64-pc-linux-gnu"

%struct.RelationData = type { %struct.RelFileLocator, ptr, i32, i32, i8, i8, i8, i8, i8, i32, i32, i32, i32, ptr, ptr, i32, %struct.LockInfoData, ptr, ptr, ptr, ptr, ptr, i8, ptr, ptr, ptr, ptr, ptr, ptr, i32, ptr, i8, ptr, ptr, i32, i8, i32, ptr, i8, ptr, ptr, ptr, ptr, ptr, ptr, ptr, i32, ptr, ptr, ptr, ptr, ptr, ptr, ptr, ptr, ptr, ptr, ptr, ptr, ptr, ptr, ptr, ptr, ptr, ptr, ptr, i32, i8, ptr }
%struct.RelFileLocator = type { i32, i32, i32 }
%struct.LockInfoData = type { %struct.LockRelId }
%struct.LockRelId = type { i32, i32 }
%struct.FormData_pg_class = type { i32, %struct.nameData, i32, i32, i32, i32, i32, i32, i32, i32, float, i32, i32, i8, i8, i8, i8, i16, i16, i8, i8, i8, i8, i8, i8, i8, i8, i32, i32, i32 }
%struct.nameData = type { [64 x i8] }
%struct.FormData_pg_index = type { i32, i32, i16, i16, i8, i8, i8, i8, i8, i8, i8, i8, i8, i8, i8, %struct.int2vector }
%struct.int2vector = type { i32, i32, i32, i32, i32, i32, [0 x i16] }
%struct.IndexAmRoutine = type { i32, i16, i16, i16, i8, i8, i8, i8, i8, i8, i8, i8, i8, i8, i8, i8, i8, i8, i8, i8, i8, i32, ptr, ptr, ptr, ptr, ptr, ptr, ptr, ptr, ptr, ptr, ptr, ptr, ptr, ptr, ptr, ptr, ptr, ptr, ptr, ptr, ptr, ptr, ptr, ptr, ptr, ptr }

@.str.2 = private unnamed_addr constant [10 x i8] c"cluster.c\00", align 1
@.str.11 = private unnamed_addr constant [36 x i8] c"\22%s\22 is not an index for table \22%s\22\00", align 1
@__func__.check_index_is_clusterable = private unnamed_addr constant [27 x i8] c"check_index_is_clusterable\00", align 1
@.str.12 = private unnamed_addr constant [79 x i8] c"cannot cluster on index \22%s\22 because access method does not support clustering\00", align 1
@.str.13 = private unnamed_addr constant [37 x i8] c"cannot cluster on partial index \22%s\22\00", align 1
@.str.14 = private unnamed_addr constant [37 x i8] c"cannot cluster on invalid index \22%s\22\00", align 1

; Function Attrs: nounwind uwtable
define dso_local void @check_index_is_clusterable(ptr noundef %0, i32 noundef %1, i32 noundef %2) #0 {
  %4 = alloca ptr, align 8
  %5 = alloca i32, align 4
  %6 = alloca i32, align 4
  %7 = alloca ptr, align 8
  store ptr %0, ptr %4, align 8
  store i32 %1, ptr %5, align 4
  store i32 %2, ptr %6, align 4
  call void @llvm.lifetime.start.p0(i64 8, ptr %7) #9
  %8 = load i32, ptr %5, align 4
  %9 = load i32, ptr %6, align 4
  %10 = call ptr @index_open(i32 noundef %8, i32 noundef %9)
  store ptr %10, ptr %7, align 8
  %11 = load ptr, ptr %7, align 8
  %12 = getelementptr inbounds nuw %struct.RelationData, ptr %11, i32 0, i32 48
  %13 = load ptr, ptr %12, align 8
  %14 = icmp eq ptr %13, null
  br i1 %14, label %25, label %15

15:                                               ; preds = %3
  %16 = load ptr, ptr %7, align 8
  %17 = getelementptr inbounds nuw %struct.RelationData, ptr %16, i32 0, i32 48
  %18 = load ptr, ptr %17, align 8
  %19 = getelementptr inbounds nuw %struct.FormData_pg_index, ptr %18, i32 0, i32 1
  %20 = load i32, ptr %19, align 4
  %21 = load ptr, ptr %4, align 8
  %22 = getelementptr inbounds nuw %struct.RelationData, ptr %21, i32 0, i32 15
  %23 = load i32, ptr %22, align 8
  %24 = icmp ne i32 %20, %23
  br i1 %24, label %25, label %49

25:                                               ; preds = %15, %3
  br label %26

26:                                               ; preds = %25
  br i1 true, label %27, label %29

27:                                               ; preds = %26
  %28 = call zeroext i1 @errstart_cold(i32 noundef 21, ptr noundef null) #11
  br i1 %28, label %31, label %46

29:                                               ; preds = %26
  %30 = call zeroext i1 @errstart(i32 noundef 21, ptr noundef null)
  br i1 %30, label %31, label %46

31:                                               ; preds = %29, %27
  %32 = call i32 @errcode(i32 noundef 151027844)
  %33 = load ptr, ptr %7, align 8
  %34 = getelementptr inbounds nuw %struct.RelationData, ptr %33, i32 0, i32 13
  %35 = load ptr, ptr %34, align 8
  %36 = getelementptr inbounds nuw %struct.FormData_pg_class, ptr %35, i32 0, i32 1
  %37 = getelementptr inbounds nuw %struct.nameData, ptr %36, i32 0, i32 0
  %38 = getelementptr inbounds [64 x i8], ptr %37, i64 0, i64 0
  %39 = load ptr, ptr %4, align 8
  %40 = getelementptr inbounds nuw %struct.RelationData, ptr %39, i32 0, i32 13
  %41 = load ptr, ptr %40, align 8
  %42 = getelementptr inbounds nuw %struct.FormData_pg_class, ptr %41, i32 0, i32 1
  %43 = getelementptr inbounds nuw %struct.nameData, ptr %42, i32 0, i32 0
  %44 = getelementptr inbounds [64 x i8], ptr %43, i64 0, i64 0
  %45 = call i32 (ptr, ...) @errmsg(ptr noundef @.str.11, ptr noundef %38, ptr noundef %44)
  call void @errfinish(ptr noundef @.str.2, i32 noundef 509, ptr noundef @__func__.check_index_is_clusterable)
  br label %46

46:                                               ; preds = %31, %29, %27
  unreachable

47:                                               ; No predecessors!
  br label %48

48:                                               ; preds = %47
  br label %49

49:                                               ; preds = %48, %15
  %50 = load ptr, ptr %7, align 8
  %51 = getelementptr inbounds nuw %struct.RelationData, ptr %50, i32 0, i32 51
  %52 = load ptr, ptr %51, align 8
  %53 = getelementptr inbounds nuw %struct.IndexAmRoutine, ptr %52, i32 0, i32 13
  %54 = load i8, ptr %53, align 1, !range !6, !noundef !7
  %55 = trunc i8 %54 to i1
  br i1 %55, label %74, label %56

56:                                               ; preds = %49
  br label %57

57:                                               ; preds = %56
  br i1 true, label %58, label %60

58:                                               ; preds = %57
  %59 = call zeroext i1 @errstart_cold(i32 noundef 21, ptr noundef null) #11
  br i1 %59, label %62, label %71

60:                                               ; preds = %57
  %61 = call zeroext i1 @errstart(i32 noundef 21, ptr noundef null)
  br i1 %61, label %62, label %71

62:                                               ; preds = %60, %58
  %63 = call i32 @errcode(i32 noundef 1088)
  %64 = load ptr, ptr %7, align 8
  %65 = getelementptr inbounds nuw %struct.RelationData, ptr %64, i32 0, i32 13
  %66 = load ptr, ptr %65, align 8
  %67 = getelementptr inbounds nuw %struct.FormData_pg_class, ptr %66, i32 0, i32 1
  %68 = getelementptr inbounds nuw %struct.nameData, ptr %67, i32 0, i32 0
  %69 = getelementptr inbounds [64 x i8], ptr %68, i64 0, i64 0
  %70 = call i32 (ptr, ...) @errmsg(ptr noundef @.str.12, ptr noundef %69)
  call void @errfinish(ptr noundef @.str.2, i32 noundef 516, ptr noundef @__func__.check_index_is_clusterable)
  br label %71

71:                                               ; preds = %62, %60, %58
  unreachable

72:                                               ; No predecessors!
  br label %73

73:                                               ; preds = %72
  br label %74

74:                                               ; preds = %73, %49
  %75 = load ptr, ptr %7, align 8
  %76 = getelementptr inbounds nuw %struct.RelationData, ptr %75, i32 0, i32 49
  %77 = load ptr, ptr %76, align 8
  %78 = call zeroext i1 @heap_attisnull(ptr noundef %77, i32 noundef 21, ptr noundef null)
  br i1 %78, label %97, label %79

79:                                               ; preds = %74
  br label %80

80:                                               ; preds = %79
  br i1 true, label %81, label %83

81:                                               ; preds = %80
  %82 = call zeroext i1 @errstart_cold(i32 noundef 21, ptr noundef null) #11
  br i1 %82, label %85, label %94

83:                                               ; preds = %80
  %84 = call zeroext i1 @errstart(i32 noundef 21, ptr noundef null)
  br i1 %84, label %85, label %94

85:                                               ; preds = %83, %81
  %86 = call i32 @errcode(i32 noundef 1088)
  %87 = load ptr, ptr %7, align 8
  %88 = getelementptr inbounds nuw %struct.RelationData, ptr %87, i32 0, i32 13
  %89 = load ptr, ptr %88, align 8
  %90 = getelementptr inbounds nuw %struct.FormData_pg_class, ptr %89, i32 0, i32 1
  %91 = getelementptr inbounds nuw %struct.nameData, ptr %90, i32 0, i32 0
  %92 = getelementptr inbounds [64 x i8], ptr %91, i64 0, i64 0
  %93 = call i32 (ptr, ...) @errmsg(ptr noundef @.str.13, ptr noundef %92)
  call void @errfinish(ptr noundef @.str.2, i32 noundef 528, ptr noundef @__func__.check_index_is_clusterable)
  br label %94

94:                                               ; preds = %85, %83, %81
  unreachable

95:                                               ; No predecessors!
  br label %96

96:                                               ; preds = %95
  br label %97

97:                                               ; preds = %96, %74
  %98 = load ptr, ptr %7, align 8
  %99 = getelementptr inbounds nuw %struct.RelationData, ptr %98, i32 0, i32 48
  %100 = load ptr, ptr %99, align 8
  %101 = getelementptr inbounds nuw %struct.FormData_pg_index, ptr %100, i32 0, i32 10
  %102 = load i8, ptr %101, align 2, !range !6, !noundef !7
  %103 = trunc i8 %102 to i1
  br i1 %103, label %122, label %104

104:                                              ; preds = %97
  br label %105

105:                                              ; preds = %104
  br i1 true, label %106, label %108

106:                                              ; preds = %105
  %107 = call zeroext i1 @errstart_cold(i32 noundef 21, ptr noundef null) #11
  br i1 %107, label %110, label %119

108:                                              ; preds = %105
  %109 = call zeroext i1 @errstart(i32 noundef 21, ptr noundef null)
  br i1 %109, label %110, label %119

110:                                              ; preds = %108, %106
  %111 = call i32 @errcode(i32 noundef 1088)
  %112 = load ptr, ptr %7, align 8
  %113 = getelementptr inbounds nuw %struct.RelationData, ptr %112, i32 0, i32 13
  %114 = load ptr, ptr %113, align 8
  %115 = getelementptr inbounds nuw %struct.FormData_pg_class, ptr %114, i32 0, i32 1
  %116 = getelementptr inbounds nuw %struct.nameData, ptr %115, i32 0, i32 0
  %117 = getelementptr inbounds [64 x i8], ptr %116, i64 0, i64 0
  %118 = call i32 (ptr, ...) @errmsg(ptr noundef @.str.14, ptr noundef %117)
  call void @errfinish(ptr noundef @.str.2, i32 noundef 542, ptr noundef @__func__.check_index_is_clusterable)
  br label %119

119:                                              ; preds = %110, %108, %106
  unreachable

120:                                              ; No predecessors!
  br label %121

121:                                              ; preds = %120
  br label %122

122:                                              ; preds = %121, %97
  %123 = load ptr, ptr %7, align 8
  call void @index_close(ptr noundef %123, i32 noundef 0)
  call void @llvm.lifetime.end.p0(i64 8, ptr %7) #9
  ret void
}