; Function Attrs: nounwind uwtable
define dso_local void @check_index_is_clusterable(ptr noundef readonly captures(none) %0, i32 noundef %1, i32 noundef %2) local_unnamed_addr #0 {
  %4 = tail call ptr @index_open(i32 noundef %1, i32 noundef %2) #7
  %5 = getelementptr inbounds nuw i8, ptr %4, i64 328
  %6 = load ptr, ptr %5, align 8
  %7 = icmp eq ptr %6, null
  br i1 %7, label %13, label %8

8:                                                ; preds = %3
  %9 = getelementptr inbounds nuw i8, ptr %6, i64 4
  %10 = load i32, ptr %9, align 4
  %11 = getelementptr inbounds nuw i8, ptr %0, i64 72
  %12 = load i32, ptr %11, align 8
  %.not = icmp eq i32 %10, %12
  br i1 %.not, label %23, label %13

13:                                               ; preds = %8, %3
  %14 = tail call zeroext i1 @errstart_cold(i32 noundef 21, ptr noundef null) #9
  tail call void @llvm.assume(i1 %14)
  %15 = tail call i32 @errcode(i32 noundef 151027844) #7
  %16 = getelementptr inbounds nuw i8, ptr %4, i64 56
  %17 = load ptr, ptr %16, align 8
  %18 = getelementptr inbounds nuw i8, ptr %17, i64 4
  %19 = getelementptr inbounds nuw i8, ptr %0, i64 56
  %20 = load ptr, ptr %19, align 8
  %21 = getelementptr inbounds nuw i8, ptr %20, i64 4
  %22 = tail call i32 (ptr, ...) @errmsg(ptr noundef nonnull @.str.11, ptr noundef nonnull %18, ptr noundef nonnull %21) #7
  tail call void @errfinish(ptr noundef nonnull @.str.2, i32 noundef 509, ptr noundef nonnull @__func__.check_index_is_clusterable) #7
  unreachable

23:                                               ; preds = %8
  %24 = getelementptr inbounds nuw i8, ptr %4, i64 352
  %25 = load ptr, ptr %24, align 8
  %26 = getelementptr inbounds nuw i8, ptr %25, i64 19
  %27 = load i8, ptr %26, align 1, !range !4, !noundef !5
  %28 = trunc nuw i8 %27 to i1
  br i1 %28, label %36, label %29

29:                                               ; preds = %23
  %30 = tail call zeroext i1 @errstart_cold(i32 noundef 21, ptr noundef null) #9
  tail call void @llvm.assume(i1 %30)
  %31 = tail call i32 @errcode(i32 noundef 1088) #7
  %32 = getelementptr inbounds nuw i8, ptr %4, i64 56
  %33 = load ptr, ptr %32, align 8
  %34 = getelementptr inbounds nuw i8, ptr %33, i64 4
  %35 = tail call i32 (ptr, ...) @errmsg(ptr noundef nonnull @.str.12, ptr noundef nonnull %34) #7
  tail call void @errfinish(ptr noundef nonnull @.str.2, i32 noundef 516, ptr noundef nonnull @__func__.check_index_is_clusterable) #7
  unreachable

36:                                               ; preds = %23
  %37 = getelementptr inbounds nuw i8, ptr %4, i64 336
  %38 = load ptr, ptr %37, align 8
  %39 = tail call zeroext i1 @heap_attisnull(ptr noundef %38, i32 noundef 21, ptr noundef null) #7
  br i1 %39, label %47, label %40

40:                                               ; preds = %36
  %41 = tail call zeroext i1 @errstart_cold(i32 noundef 21, ptr noundef null) #9
  tail call void @llvm.assume(i1 %41)
  %42 = tail call i32 @errcode(i32 noundef 1088) #7
  %43 = getelementptr inbounds nuw i8, ptr %4, i64 56
  %44 = load ptr, ptr %43, align 8
  %45 = getelementptr inbounds nuw i8, ptr %44, i64 4
  %46 = tail call i32 (ptr, ...) @errmsg(ptr noundef nonnull @.str.13, ptr noundef nonnull %45) #7
  tail call void @errfinish(ptr noundef nonnull @.str.2, i32 noundef 528, ptr noundef nonnull @__func__.check_index_is_clusterable) #7
  unreachable

47:                                               ; preds = %36
  %48 = load ptr, ptr %5, align 8
  %49 = getelementptr inbounds nuw i8, ptr %48, i64 18
  %50 = load i8, ptr %49, align 2, !range !4, !noundef !5
  %51 = trunc nuw i8 %50 to i1
  br i1 %51, label %59, label %52

52:                                               ; preds = %47
  %53 = tail call zeroext i1 @errstart_cold(i32 noundef 21, ptr noundef null) #9
  tail call void @llvm.assume(i1 %53)
  %54 = tail call i32 @errcode(i32 noundef 1088) #7
  %55 = getelementptr inbounds nuw i8, ptr %4, i64 56
  %56 = load ptr, ptr %55, align 8
  %57 = getelementptr inbounds nuw i8, ptr %56, i64 4
  %58 = tail call i32 (ptr, ...) @errmsg(ptr noundef nonnull @.str.14, ptr noundef nonnull %57) #7
  tail call void @errfinish(ptr noundef nonnull @.str.2, i32 noundef 542, ptr noundef nonnull @__func__.check_index_is_clusterable) #7
  unreachable

59:                                               ; preds = %47
  tail call void @index_close(ptr noundef nonnull %4, i32 noundef 0) #7
  ret void
}